; Function Attrs: uwtable
define noundef i32 @_ZTv0_n32_N3zmq14plain_server_t22next_handshake_commandEPNS_5msg_tE(ptr noundef %this, ptr noundef %msg_) unnamed_addr #7 align 2 {
entry:
  %0 = load ptr, ptr %this, align 8
  %1 = getelementptr inbounds i8, ptr %0, i64 -32
  %2 = load i64, ptr %1, align 8
  %3 = getelementptr inbounds i8, ptr %this, i64 %2
  %state.i = getelementptr inbounds i8, ptr %3, i64 72
  %4 = load i32, ptr %state.i, align 8
  switch i32 %4, label %sw.default.i [
    i32 1, label %sw.bb.i
    i32 4, label %sw.bb3.i
    i32 5, label %sw.bb5.i
  ]

sw.bb.i:                                          ; preds = %entry
  tail call void @_ZN3zmq14plain_server_t15produce_welcomeEPNS_5msg_tE(ptr noundef %msg_)
  store i32 2, ptr %state.i, align 8
  br label %_ZN3zmq14plain_server_t22next_handshake_commandEPNS_5msg_tE.exit

sw.bb3.i:                                         ; preds = %entry
  %add.ptr.i.i = getelementptr inbounds i8, ptr %3, i64 80
  tail call void @_ZNK3zmq11mechanism_t34make_command_with_basic_propertiesEPNS_5msg_tEPKcm(ptr noundef nonnull align 8 dereferenceable(1488) %add.ptr.i.i, ptr noundef %msg_, ptr noundef nonnull @_ZN3zmqL12ready_prefixE, i64 noundef 6)
  store i32 7, ptr %state.i, align 8
  br label %_ZN3zmq14plain_server_t22next_handshake_commandEPNS_5msg_tE.exit

sw.bb5.i:                                         ; preds = %entry
  tail call void @_ZNK3zmq14plain_server_t13produce_errorEPNS_5msg_tE(ptr noundef nonnull align 8 dereferenceable(1576) %3, ptr noundef %msg_)
  store i32 6, ptr %state.i, align 8
  br label %_ZN3zmq14plain_server_t22next_handshake_commandEPNS_5msg_tE.exit

sw.default.i:                                     ; preds = %entry
  %call.i = tail call ptr @__errno_location() #15
  store i32 11, ptr %call.i, align 4
  br label %_ZN3zmq14plain_server_t22next_handshake_commandEPNS_5msg_tE.exit

_ZN3zmq14plain_server_t22next_handshake_commandEPNS_5msg_tE.exit: ; preds = %sw.bb.i, %sw.bb3.i, %sw.bb5.i, %sw.default.i
  %rc.0.i = phi i32 [ -1, %sw.default.i ], [ 0, %sw.bb5.i ], [ 0, %sw.bb3.i ], [ 0, %sw.bb.i ]
  ret i32 %rc.0.i
}